; Function Attrs: nounwind uwtable
define internal zeroext i1 @count_param_references(ptr noundef %0, ptr noundef %1) #0 {
  %3 = icmp eq ptr %0, null
  br i1 %3, label %25, label %4

4:                                                ; preds = %2
  %5 = load i32, ptr %0, align 4
  %6 = icmp eq i32 %5, 8
  br i1 %6, label %7, label %23

7:                                                ; preds = %4
  %8 = getelementptr inbounds nuw i8, ptr %0, i64 4
  %9 = load i32, ptr %8, align 4
  %10 = icmp eq i32 %9, 0
  br i1 %10, label %11, label %22

11:                                               ; preds = %7
  %12 = getelementptr inbounds nuw i8, ptr %0, i64 8
  %13 = load i32, ptr %12, align 4
  %14 = load i32, ptr %1, align 8
  %15 = icmp eq i32 %13, %14
  br i1 %15, label %16, label %22

16:                                               ; preds = %11
  %17 = getelementptr inbounds nuw i8, ptr %1, i64 8
  store ptr %0, ptr %17, align 8
  %18 = getelementptr inbounds nuw i8, ptr %1, i64 4
  %19 = load i32, ptr %18, align 4
  %20 = add i32 %19, 1
  store i32 %20, ptr %18, align 4
  %21 = icmp sgt i32 %20, 1
  br i1 %21, label %25, label %22

22:                                               ; preds = %16, %11, %7
  br label %25

23:                                               ; preds = %4
  %24 = tail call zeroext i1 @expression_tree_walker_impl(ptr noundef nonnull %0, ptr noundef nonnull @count_param_references, ptr noundef %1) #12
  br label %25

25:                                               ; preds = %22, %16, %2, %23
  %.0 = phi i1 [ %24, %23 ], [ false, %2 ], [ false, %22 ], [ true, %16 ]
  ret i1 %.0
}